target datalayout = "e-m:e-p270:32:32-p271:32:32-p272:64:64-i64:64-i128:128-f80:128-n8:16:32:64-S128"
target triple = "x86_64-pc-linux-gnu"

%struct.SUNStepper_ = type { ptr, ptr, ptr, i32 }
%struct.SUNStepper_Ops_ = type { ptr, ptr, ptr, ptr, ptr, ptr, ptr, ptr }

; Function Attrs: nounwind uwtable
define i32 @SUNStepper_Create(ptr noundef %0, ptr noundef %1) #0 {
  %3 = alloca ptr, align 8
  %4 = alloca ptr, align 8
  %5 = alloca ptr, align 8
  %6 = alloca ptr, align 8
  store ptr %0, ptr %3, align 8, !tbaa !3
  store ptr %1, ptr %4, align 8, !tbaa !8
  call void @llvm.lifetime.start.p0(i64 8, ptr %5) #4
  %7 = load ptr, ptr %3, align 8, !tbaa !3
  store ptr %7, ptr %5, align 8, !tbaa !3
  call void @llvm.lifetime.start.p0(i64 8, ptr %6) #4
  %8 = call noalias ptr @malloc(i64 noundef 32) #5
  store ptr %8, ptr %6, align 8, !tbaa !10
  %9 = load ptr, ptr %6, align 8, !tbaa !10
  %10 = getelementptr inbounds nuw %struct.SUNStepper_, ptr %9, i32 0, i32 0
  store ptr null, ptr %10, align 8, !tbaa !12
  %11 = load ptr, ptr %3, align 8, !tbaa !3
  %12 = load ptr, ptr %6, align 8, !tbaa !10
  %13 = getelementptr inbounds nuw %struct.SUNStepper_, ptr %12, i32 0, i32 2
  store ptr %11, ptr %13, align 8, !tbaa !16
  %14 = load ptr, ptr %6, align 8, !tbaa !10
  %15 = getelementptr inbounds nuw %struct.SUNStepper_, ptr %14, i32 0, i32 3
  store i32 0, ptr %15, align 8, !tbaa !17
  %16 = call noalias ptr @malloc(i64 noundef 64) #5
  %17 = load ptr, ptr %6, align 8, !tbaa !10
  %18 = getelementptr inbounds nuw %struct.SUNStepper_, ptr %17, i32 0, i32 1
  store ptr %16, ptr %18, align 8, !tbaa !18
  %19 = load ptr, ptr %6, align 8, !tbaa !10
  %20 = getelementptr inbounds nuw %struct.SUNStepper_, ptr %19, i32 0, i32 1
  %21 = load ptr, ptr %20, align 8, !tbaa !18
  %22 = getelementptr inbounds nuw %struct.SUNStepper_Ops_, ptr %21, i32 0, i32 0
  store ptr null, ptr %22, align 8, !tbaa !19
  %23 = load ptr, ptr %6, align 8, !tbaa !10
  %24 = getelementptr inbounds nuw %struct.SUNStepper_, ptr %23, i32 0, i32 1
  %25 = load ptr, ptr %24, align 8, !tbaa !18
  %26 = getelementptr inbounds nuw %struct.SUNStepper_Ops_, ptr %25, i32 0, i32 1
  store ptr null, ptr %26, align 8, !tbaa !21
  %27 = load ptr, ptr %6, align 8, !tbaa !10
  %28 = getelementptr inbounds nuw %struct.SUNStepper_, ptr %27, i32 0, i32 1
  %29 = load ptr, ptr %28, align 8, !tbaa !18
  %30 = getelementptr inbounds nuw %struct.SUNStepper_Ops_, ptr %29, i32 0, i32 2
  store ptr null, ptr %30, align 8, !tbaa !22
  %31 = load ptr, ptr %6, align 8, !tbaa !10
  %32 = getelementptr inbounds nuw %struct.SUNStepper_, ptr %31, i32 0, i32 1
  %33 = load ptr, ptr %32, align 8, !tbaa !18
  %34 = getelementptr inbounds nuw %struct.SUNStepper_Ops_, ptr %33, i32 0, i32 3
  store ptr null, ptr %34, align 8, !tbaa !23
  %35 = load ptr, ptr %6, align 8, !tbaa !10
  %36 = getelementptr inbounds nuw %struct.SUNStepper_, ptr %35, i32 0, i32 1
  %37 = load ptr, ptr %36, align 8, !tbaa !18
  %38 = getelementptr inbounds nuw %struct.SUNStepper_Ops_, ptr %37, i32 0, i32 4
  store ptr null, ptr %38, align 8, !tbaa !24
  %39 = load ptr, ptr %6, align 8, !tbaa !10
  %40 = getelementptr inbounds nuw %struct.SUNStepper_, ptr %39, i32 0, i32 1
  %41 = load ptr, ptr %40, align 8, !tbaa !18
  %42 = getelementptr inbounds nuw %struct.SUNStepper_Ops_, ptr %41, i32 0, i32 5
  store ptr null, ptr %42, align 8, !tbaa !25
  %43 = load ptr, ptr %6, align 8, !tbaa !10
  %44 = getelementptr inbounds nuw %struct.SUNStepper_, ptr %43, i32 0, i32 1
  %45 = load ptr, ptr %44, align 8, !tbaa !18
  %46 = getelementptr inbounds nuw %struct.SUNStepper_Ops_, ptr %45, i32 0, i32 6
  store ptr null, ptr %46, align 8, !tbaa !26
  %47 = load ptr, ptr %6, align 8, !tbaa !10
  %48 = getelementptr inbounds nuw %struct.SUNStepper_, ptr %47, i32 0, i32 1
  %49 = load ptr, ptr %48, align 8, !tbaa !18
  %50 = getelementptr inbounds nuw %struct.SUNStepper_Ops_, ptr %49, i32 0, i32 7
  store ptr null, ptr %50, align 8, !tbaa !27
  %51 = load ptr, ptr %6, align 8, !tbaa !10
  %52 = load ptr, ptr %4, align 8, !tbaa !8
  store ptr %51, ptr %52, align 8, !tbaa !10
  call void @llvm.lifetime.end.p0(i64 8, ptr %6) #4
  call void @llvm.lifetime.end.p0(i64 8, ptr %5) #4
  ret i32 0
}