; Function Attrs: mustprogress nofree nounwind willreturn memory(write, inaccessiblemem: readwrite) uwtable
define noundef i32 @SUNStepper_Create(ptr noundef %0, ptr noundef writeonly captures(none) initializes((0, 8)) %1) local_unnamed_addr #0 {
  %3 = tail call noalias dereferenceable_or_null(32) ptr @malloc(i64 noundef 32) #8
  store ptr null, ptr %3, align 8, !tbaa !3
  %4 = getelementptr inbounds nuw i8, ptr %3, i64 16
  store ptr %0, ptr %4, align 8, !tbaa !11
  %5 = getelementptr inbounds nuw i8, ptr %3, i64 24
  store i32 0, ptr %5, align 8, !tbaa !12
  %calloc = tail call dereferenceable_or_null(64) ptr @calloc(i64 1, i64 64)
  %6 = getelementptr inbounds nuw i8, ptr %3, i64 8
  store ptr %calloc, ptr %6, align 8, !tbaa !13
  store ptr %3, ptr %1, align 8, !tbaa !14
  ret i32 0
}